Certificate:
    Data:
        Version: 3 (0x2)
        Serial Number: 404 (0x194)
    Signature Algorithm: sha1WithRSAEncryption
        Issuer: C=US, ST=California, L=Mountain View, O=Mozilla Corporation, OU=Mozilla Corporation Root Certificate Services, CN=Mozilla Root CA/emailAddress=hostmaster@mozilla.com
        Validity
            Not Before: Apr 17 21:22:32 2014 GMT
            Not After : Apr 16 21:22:32 2019 GMT
        Subject: C=US, ST=California, L=Mountain View, O=Mozilla Corporation, OU=Security, CN=mozdef1.private.scl3.mozilla.com/emailAddress=hostmaster@mozilla.com
        Subject Public Key Info:
            Public Key Algorithm: rsaEncryption
                Public-Key: (2048 bit)
                Modulus:
                    00:b8:7c:36:e0:4a:9d:f9:28:11:0b:89:0d:44:77:
                    a6:d3:08:da:75:96:c3:91:6e:0a:98:56:14:6c:52:
                    99:88:7e:a8:a9:6d:ad:59:2f:b7:37:28:96:38:42:
                    09:c8:e8:6d:bb:bf:17:c5:35:4d:cf:d2:97:6a:ff:
                    8b:e7:c2:3a:32:ed:58:85:c0:b0:37:58:46:9b:92:
                    fb:03:73:52:bb:4d:fc:2e:2c:2c:5f:be:4f:97:a9:
                    69:9d:ee:7f:ae:45:17:94:4e:f9:21:50:2f:b4:5b:
                    c5:81:f1:1d:01:bf:2f:87:cc:d3:f2:b0:82:d4:99:
                    38:95:b4:b9:34:40:a7:df:4c:d7:10:7e:23:da:bc:
                    50:e4:c4:d3:ac:b8:a2:24:13:4d:05:3c:34:00:a9:
                    6c:6d:07:cc:18:aa:74:46:2f:29:df:39:e8:fe:af:
                    c7:89:22:4c:ec:c5:45:70:1a:e2:80:c5:00:17:ac:
                    b7:11:cc:81:6a:46:e9:c4:4e:fd:ab:cd:de:52:c1:
                    24:fa:e7:d0:db:90:59:5d:a7:4b:40:2c:4d:f2:cc:
                    99:e0:4a:d6:2c:51:70:06:c0:3f:46:e3:d1:bd:9b:
                    1c:78:93:ea:e3:77:47:53:00:66:93:53:e1:1b:b5:
                    ea:ba:72:b4:f4:2c:27:19:7d:d5:a3:48:8b:59:8e:
                    c0:7b
                Exponent: 65537 (0x10001)
        X509v3 extensions:
            X509v3 Authority Key Identifier: 
                keyid:B9:D5:73:EC:8F:19:E2:B3:19:3A:E4:6E:A1:86:50:35:8B:66:C2:E9

            X509v3 Extended Key Usage: 
                TLS Web Server Authentication, TLS Web Client Authentication, Microsoft Server Gated Crypto, Netscape Server Gated Crypto
            X509v3 Basic Constraints: critical
                CA:FALSE
            X509v3 Subject Alternative Name: 
                DNS:mozdef1.private.scl3.mozilla.com, DNS:mozdef2.private.scl3.mozilla.com
    Signature Algorithm: sha1WithRSAEncryption
         1a:3d:16:6b:61:c9:a0:38:97:79:56:cf:85:f9:a2:20:62:27:
         0b:62:41:8f:30:38:93:a1:61:75:d4:41:28:b2:c1:a3:23:3d:
         33:25:8a:03:83:72:e2:80:c5:7e:fa:24:6e:01:6c:6d:dc:0d:
         59:5e:c3:6f:ef:17:0c:15:fa:86:27:d6:81:76:41:f7:51:71:
         c8:56:31:27:dc:51:21:3b:0e:17:15:56:77:aa:e3:92:20:f7:
         a7:34:04:e8:f6:05:6a:5f:8f:00:f3:fb:33:5a:8d:54:65:6e:
         c5:a8:4e:20:bf:1b:40:19:93:08:2b:41:4a:4a:91:2f:de:70:
         26:0a:6b:83:c8:11:33:95:c9:bf:09:37:51:5e:19:9e:df:be:
         64:41:d1:73:f5:29:67:93:9b:69:22:90:41:3f:de:dd:2e:da:
         a8:4c:eb:81:91:ec:d9:ed:f0:14:a5:49:2c:d1:9b:56:86:db:
         96:40:96:6a:fe:91:cc:4c:ef:d9:72:be:cd:f9:c1:2d:46:c7:
         c5:4d:49:0f:5e:27:31:8f:44:d3:f8:6a:d1:d2:a1:63:07:db:
         dd:e8:7b:e1:96:16:d7:cb:3d:3b:32:ad:f6:e7:63:45:f5:7e:
         a9:d1:59:29:ac:0e:65:ce:b8:f9:37:dd:e6:c2:e9:47:91:35:
         61:c3:1c:a2:61:b2:45:00:aa:72:da:cd:58:5f:69:4b:ce:20:
         91:22:70:30:91:ba:9c:dd:fd:33:9f:4a:8b:54:58:6c:ca:78:
         0b:23:ff:bb:f9:28:64:94:3a:84:92:f9:90:d7:3f:74:d6:99:
         4a:63:96:b5:cd:5b:41:11:39:a4:f4:07:a7:b1:64:27:5a:63:
         60:ab:b7:07:b8:45:cc:cc:6a:0b:41:04:69:f0:19:5f:a0:d4:
         b8:c5:89:1a:7c:b8:b3:99:e2:dc:e3:23:c0:7f:fc:46:db:34:
         15:e1:e9:02:af:88:bb:af:f0:0f:7e:09:8b:8b:02:75:25:52:
         d4:f9:8d:93:05:d1:3e:fc:52:5e:14:45:44:c5:b8:aa:26:63:
         35:76:26:ae:78:7f:9a:0e:63:ac:f4:40:54:87:84:ea:20:71:
         58:4f:e4:6f:30:5c:69:33:0f:98:f3:30:91:ed:7f:d0:70:53:
         ef:f0:28:b2:4f:f1:c2:0d:1b:05:fb:e9:d4:7e:c4:db:c2:a1:
         8b:f8:fc:9a:c5:8a:71:61:be:0f:0d:b7:d5:27:36:5c:26:05:
         da:dd:08:86:b6:10:7b:9d:67:fd:ae:32:69:e8:6e:de:93:bf:
         d9:58:fd:f3:7d:6a:46:bd:89:e0:4c:bc:64:e4:96:81:8e:4a:
         d8:79:2d:43:53:af:26:fe
-----BEGIN CERTIFICATE-----
MIIFxDCCA6ygAwIBAgICAZQwDQYJKoZIhvcNAQEFBQAwgdExCzAJBgNVBAYTAlVT
MRMwEQYDVQQIEwpDYWxpZm9ybmlhMRYwFAYDVQQHEw1Nb3VudGFpbiBWaWV3MRww
GgYDVQQKExNNb3ppbGxhIENvcnBvcmF0aW9uMTYwNAYDVQQLEy1Nb3ppbGxhIENv
cnBvcmF0aW9uIFJvb3QgQ2VydGlmaWNhdGUgU2VydmljZXMxGDAWBgNVBAMTD01v
emlsbGEgUm9vdCBDQTElMCMGCSqGSIb3DQEJARYWaG9zdG1hc3RlckBtb3ppbGxh
LmNvbTAeFw0xNDA0MTcyMTIyMzJaFw0xOTA0MTYyMTIyMzJaMIG9MQswCQYDVQQG
EwJVUzETMBEGA1UECBMKQ2FsaWZvcm5pYTEWMBQGA1UEBxMNTW91bnRhaW4gVmll
dzEcMBoGA1UEChMTTW96aWxsYSBDb3Jwb3JhdGlvbjERMA8GA1UECxMIU2VjdXJp
dHkxKTAnBgNVBAMTIG1vemRlZjEucHJpdmF0ZS5zY2wzLm1vemlsbGEuY29tMSUw
IwYJKoZIhvcNAQkBFhZob3N0bWFzdGVyQG1vemlsbGEuY29tMIIBIjANBgkqhkiG
9w0BAQEFAAOCAQ8AMIIBCgKCAQEAuHw24Eqd+SgRC4kNRHem0wjadZbDkW4KmFYU
bFKZiH6oqW2tWS+3NyiWOEIJyOhtu78XxTVNz9KXav+L58I6Mu1YhcCwN1hGm5L7
A3NSu038LiwsX75Pl6lpne5/rkUXlE75IVAvtFvFgfEdAb8vh8zT8rCC1Jk4lbS5
NECn30zXEH4j2rxQ5MTTrLiiJBNNBTw0AKlsbQfMGKp0Ri8p3zno/q/HiSJM7MVF
cBrigMUAF6y3EcyBakbpxE79q83eUsEk+ufQ25BZXadLQCxN8syZ4ErWLFFwBsA/
RuPRvZsceJPq43dHUwBmk1PhG7XqunK09CwnGX3Vo0iLWY7AewIDAQABo4G3MIG0
MB8GA1UdIwQYMBaAFLnVc+yPGeKzGTrkbqGGUDWLZsLpMDQGA1UdJQQtMCsGCCsG
AQUFBwMBBggrBgEFBQcDAgYKKwYBBAGCNwoDAwYJYIZIAYb4QgQBMAwGA1UdEwEB
/wQCMAAwTQYDVR0RBEYwRIIgbW96ZGVmMS5wcml2YXRlLnNjbDMubW96aWxsYS5j
b22CIG1vemRlZjIucHJpdmF0ZS5zY2wzLm1vemlsbGEuY29tMA0GCSqGSIb3DQEB
BQUAA4ICAQAaPRZrYcmgOJd5Vs+F+aIgYicLYkGPMDiToWF11EEossGjIz0zJYoD
g3LigMV++iRuAWxt3A1ZXsNv7xcMFfqGJ9aBdkH3UXHIVjEn3FEhOw4XFVZ3quOS
IPenNATo9gVqX48A8/szWo1UZW7FqE4gvxtAGZMIK0FKSpEv3nAmCmuDyBEzlcm/
CTdRXhme375kQdFz9Slnk5tpIpBBP97dLtqoTOuBkezZ7fAUpUks0ZtWhtuWQJZq
/pHMTO/Zcr7N+cEtRsfFTUkPXicxj0TT+GrR0qFjB9vd6HvhlhbXyz07Mq3252NF
9X6p0VkprA5lzrj5N93mwulHkTVhwxyiYbJFAKpy2s1YX2lLziCRInAwkbqc3f0z
n0qLVFhsyngLI/+7+ShklDqEkvmQ1z901plKY5a1zVtBETmk9AensWQnWmNgq7cH
uEXMzGoLQQRp8BlfoNS4xYkafLizmeLc4yPAf/xG2zQV4ekCr4i7r/APfgmLiwJ1
JVLU+Y2TBdE+/FJeFEVExbiqJmM1diaueH+aDmOs9EBUh4TqIHFYT+RvMFxpMw+Y
8zCR7X/QcFPv8CiyT/HCDRsF++nUfsTbwqGL+PyaxYpxYb4PDbfVJzZcJgXa3QiG
thB7nWf9rjJp6G7ek7/ZWP3zfWpGvYngTLxk5JaBjkrYeS1DU68m/g==
-----END CERTIFICATE-----
